target datalayout = "e-m:e-p270:32:32-p271:32:32-p272:64:64-i64:64-i128:128-f80:128-n8:16:32:64-S128"
target triple = "x86_64-pc-linux-gnu"

%struct.H5FD_onion_fapl_info_t = type { i8, i64, i32, i32, i64, i8, i8, [256 x i8] }
%struct.H5FD_onion_t = type { %struct.H5FD_t, %struct.H5FD_onion_fapl_info_t, i8, i8, ptr, ptr, ptr, ptr, %struct.H5FD_onion_header_t, %struct.H5FD_onion_history_t, %struct.H5FD_onion_revision_record_t, ptr, i64, i64, i64, i64 }
%struct.H5FD_t = type { i64, ptr, i64, i32, i64, i64, i64, i64, i64, i8 }
%struct.H5FD_onion_header_t = type { i8, i32, i32, i64, i64, i64, i32 }
%struct.H5FD_onion_history_t = type { i8, i64, ptr, i32 }
%struct.H5FD_onion_revision_record_t = type { i8, i64, i64, [16 x i8], i64, %struct.H5FD_onion_archival_index_t, i32, ptr, i32 }
%struct.H5FD_onion_archival_index_t = type { i8, i32, i64, ptr }

@.str = private unnamed_addr constant [103 x i8] c"generated/home/dtcxzyw/WorkSpace/Projects/compilers/llvm-opt-benchmark/bench/hdf5/hdf5/src/H5FDonion.c\00", align 1
@H5E_VFL_g = external global i64, align 8
@__func__.H5FD__onion_ctl = private unnamed_addr constant [16 x i8] c"H5FD__onion_ctl\00", align 1
@H5E_FCNTL_g = external global i64, align 8
@.str.120 = private unnamed_addr constant [29 x i8] c"the output parameter is null\00", align 1
@.str.121 = private unnamed_addr constant [48 x i8] c"unknown op_code and fail if unknown flag is set\00", align 1

; Function Attrs: nounwind uwtable
define internal i32 @H5FD__onion_ctl(ptr noundef %0, i64 noundef %1, i64 noundef %2, ptr noundef %3, ptr noundef %4) #0 {
  %6 = alloca ptr, align 8
  %7 = alloca i64, align 8
  %8 = alloca i64, align 8
  %9 = alloca ptr, align 8
  %10 = alloca ptr, align 8
  %11 = alloca ptr, align 8
  %12 = alloca i32, align 4
  %13 = alloca i8, align 1
  store ptr %0, ptr %6, align 8
  store i64 %1, ptr %7, align 8
  store i64 %2, ptr %8, align 8
  store ptr %3, ptr %9, align 8
  store ptr %4, ptr %10, align 8
  %14 = load ptr, ptr %6, align 8
  store ptr %14, ptr %11, align 8
  store i32 0, ptr %12, align 4
  store i8 0, ptr %13, align 1
  %15 = load i64, ptr %7, align 8
  switch i64 %15, label %45 [
    i64 20001, label %16
  ]

16:                                               ; preds = %5
  %17 = load ptr, ptr %10, align 8
  %18 = icmp ne ptr %17, null
  br i1 %18, label %19, label %23

19:                                               ; preds = %16
  %20 = load ptr, ptr %10, align 8
  %21 = load ptr, ptr %20, align 8
  %22 = icmp ne ptr %21, null
  br i1 %22, label %38, label %23

23:                                               ; preds = %19, %16
  br label %24

24:                                               ; preds = %23
  br label %25

25:                                               ; preds = %24
  br label %26

26:                                               ; preds = %25
  %27 = load i64, ptr @H5E_VFL_g, align 8
  %28 = load i64, ptr @H5E_FCNTL_g, align 8
  %29 = call i32 (ptr, ptr, i32, i64, i64, ptr, ...) @H5E_printf_stack(ptr noundef @.str, ptr noundef @__func__.H5FD__onion_ctl, i32 noundef 1637, i64 noundef %27, i64 noundef %28, ptr noundef @.str.120)
  br label %30

30:                                               ; preds = %26
  store i8 1, ptr %13, align 1
  %31 = load i8, ptr %13, align 1
  %32 = trunc i8 %31 to i1
  %33 = zext i1 %32 to i8
  store i8 %33, ptr %13, align 1
  br label %34

34:                                               ; preds = %30
  br label %35

35:                                               ; preds = %34
  store i32 -1, ptr %12, align 4
  br label %66

36:                                               ; No predecessors!
  br label %37

37:                                               ; preds = %36
  br label %38

38:                                               ; preds = %37, %19
  %39 = load ptr, ptr %11, align 8
  %40 = getelementptr inbounds %struct.H5FD_onion_t, ptr %39, i32 0, i32 9
  %41 = getelementptr inbounds %struct.H5FD_onion_history_t, ptr %40, i32 0, i32 1
  %42 = load i64, ptr %41, align 8
  %43 = load ptr, ptr %10, align 8
  %44 = load ptr, ptr %43, align 8
  store i64 %42, ptr %44, align 8
  br label %65

45:                                               ; preds = %5
  %46 = load i64, ptr %8, align 8
  %47 = and i64 %46, 1
  %48 = icmp ne i64 %47, 0
  br i1 %48, label %49, label %64

49:                                               ; preds = %45
  br label %50

50:                                               ; preds = %49
  br label %51

51:                                               ; preds = %50
  br label %52

52:                                               ; preds = %51
  %53 = load i64, ptr @H5E_VFL_g, align 8
  %54 = load i64, ptr @H5E_FCNTL_g, align 8
  %55 = call i32 (ptr, ptr, i32, i64, i64, ptr, ...) @H5E_printf_stack(ptr noundef @.str, ptr noundef @__func__.H5FD__onion_ctl, i32 noundef 1644, i64 noundef %53, i64 noundef %54, ptr noundef @.str.121)
  br label %56

56:                                               ; preds = %52
  store i8 1, ptr %13, align 1
  %57 = load i8, ptr %13, align 1
  %58 = trunc i8 %57 to i1
  %59 = zext i1 %58 to i8
  store i8 %59, ptr %13, align 1
  br label %60

60:                                               ; preds = %56
  br label %61

61:                                               ; preds = %60
  store i32 -1, ptr %12, align 4
  br label %66

62:                                               ; No predecessors!
  br label %63

63:                                               ; preds = %62
  br label %64

64:                                               ; preds = %63, %45
  br label %65

65:                                               ; preds = %64, %38
  br label %66

66:                                               ; preds = %65, %61, %35
  %67 = load i32, ptr %12, align 4
  ret i32 %67
}