; Function Attrs: nounwind uwtable
define internal range(i32 -1, 1) i32 @H5FD__onion_ctl(ptr noundef readonly captures(none) %0, i64 noundef %1, i64 noundef %2, ptr readnone captures(none) %3, ptr noundef readonly %4) #0 {
  %cond = icmp eq i64 %1, 20001
  br i1 %cond, label %6, label %16

6:                                                ; preds = %5
  %.not11 = icmp eq ptr %4, null
  br i1 %.not11, label %9, label %7

7:                                                ; preds = %6
  %8 = load ptr, ptr %4, align 8
  %.not12 = icmp eq ptr %8, null
  br i1 %.not12, label %9, label %13

9:                                                ; preds = %6, %7
  %10 = load i64, ptr @H5E_VFL_g, align 8
  %11 = load i64, ptr @H5E_FCNTL_g, align 8
  %12 = tail call i32 (ptr, ptr, i32, i64, i64, ptr, ...) @H5E_printf_stack(ptr noundef nonnull @.str, ptr noundef nonnull @__func__.H5FD__onion_ctl, i32 noundef 1637, i64 noundef %10, i64 noundef %11, ptr noundef nonnull @.str.120) #18
  br label %22

13:                                               ; preds = %7
  %14 = getelementptr inbounds nuw i8, ptr %0, i64 472
  %15 = load i64, ptr %14, align 8
  store i64 %15, ptr %8, align 8
  br label %22

16:                                               ; preds = %5
  %17 = and i64 %2, 1
  %.not = icmp eq i64 %17, 0
  br i1 %.not, label %22, label %18

18:                                               ; preds = %16
  %19 = load i64, ptr @H5E_VFL_g, align 8
  %20 = load i64, ptr @H5E_FCNTL_g, align 8
  %21 = tail call i32 (ptr, ptr, i32, i64, i64, ptr, ...) @H5E_printf_stack(ptr noundef nonnull @.str, ptr noundef nonnull @__func__.H5FD__onion_ctl, i32 noundef 1644, i64 noundef %19, i64 noundef %20, ptr noundef nonnull @.str.121) #18
  br label %22

22:                                               ; preds = %13, %16, %18, %9
  %.0 = phi i32 [ 0, %13 ], [ -1, %9 ], [ -1, %18 ], [ 0, %16 ]
  ret i32 %.0
}